ccopy_reg
_reconstructor
p0
(c__main__
MyPreprocessor
p1
c__builtin__
object
p2
Ntp3
Rp4
(dp5
S'enc'
p6
g0
(csklearn.preprocessing._encoders
OneHotEncoder
p7
g2
Ntp8
Rp9
(dp10
S'_categorical_features'
p11
S'all'
p12
sS'categories_'
p13
(lp14
cnumpy.core._multiarray_umath
_reconstruct
p15
(cnumpy
ndarray
p16
(I0
tp17
S'b'
p18
tp19
Rp20
(I1
(I2
tp21
cnumpy
dtype
p22
(S'O8'
p23
I0
I1
tp24
Rp25
(I3
S'|'
p26
NNNI-1
I-1
I63
tp27
bI00
(lp28
VF
p29
aVM
p30
atp31
bag15
(g16
(I0
tp32
g18
tp33
Rp34
(I1
(I7
tp35
g25
I00
(lp36
V0-17
p37
aV18-25
p38
aV26-35
p39
aV36-45
p40
aV46-50
p41
aV51-55
p42
aV55+
p43
atp44
bag15
(g16
(I0
tp45
g18
tp46
Rp47
(I1
(I21
tp48
g25
I00
(lp49
F0.0
aF1.0
aF2.0
aF3.0
aF4.0
aF5.0
aF6.0
aF7.0
aF8.0
aF9.0
aF10.0
aF11.0
aF12.0
aF13.0
aF14.0
aF15.0
aF16.0
aF17.0
aF18.0
aF19.0
aF20.0
atp50
bag15
(g16
(I0
tp51
g18
tp52
Rp53
(I1
(I3
tp54
g25
I00
(lp55
VA
p56
aVB
p57
aVC
p58
atp59
bag15
(g16
(I0
tp60
g18
tp61
Rp62
(I1
(I5
tp63
g25
I00
(lp64
V0
p65
aV1
p66
aV2
p67
aV3
p68
aV4+
p69
atp70
bag15
(g16
(I0
tp71
g18
tp72
Rp73
(I1
(I2
tp74
g25
I00
(lp75
F0.0
aF1.0
atp76
basS'dtype'
p77
cnumpy
float64
p78
sS'_categories'
p79
S'auto'
p80
sS'categorical_features'
p81
NsS'n_values'
p82
NsS'_legacy_mode'
p83
I00
sS'_n_values'
p84
NsS'_sklearn_version'
p85
S'0.20.2'
p86
sS'sparse'
p87
I01
sS'handle_unknown'
p88
S'ignore'
p89
sS'categories'
p90
g80
sbsb.